; ModuleID = 'bench/ceres/original/context.ll'
source_filename = "bench/ceres/original/context.ll"
target datalayout = "e-m:e-p270:32:32-p271:32:32-p272:64:64-i64:64-i128:128-f80:128-n8:16:32:64-S128"
target triple = "x86_64-pc-linux-gnu"

@_ZTVN5ceres7ContextE = unnamed_addr constant { [4 x ptr] } { [4 x ptr] [ptr null, ptr @_ZTIN5ceres7ContextE, ptr @_ZN5ceres7ContextD1Ev, ptr @_ZN5ceres7ContextD0Ev] }, align 8
@_ZTIN5ceres7ContextE = constant { ptr, ptr } { ptr getelementptr inbounds (ptr, ptr @_ZTVN10__cxxabiv117__class_type_infoE, i64 2), ptr @_ZTSN5ceres7ContextE }, align 8
@_ZTVN10__cxxabiv117__class_type_infoE = external global [0 x ptr]
@_ZTSN5ceres7ContextE = constant [17 x i8] c"N5ceres7ContextE\00", align 1

@_ZN5ceres7ContextC1Ev = unnamed_addr alias void (ptr), ptr @_ZN5ceres7ContextC2Ev
@_ZN5ceres7ContextD1Ev = unnamed_addr alias void (ptr), ptr @_ZN5ceres7ContextD2Ev

; Function Attrs: mustprogress nofree norecurse nosync nounwind willreturn memory(argmem: write) uwtable
define void @_ZN5ceres7ContextC2Ev(ptr noundef nonnull writeonly align 8 captures(none) dereferenceable(8) initializes((0, 8)) %0) unnamed_addr #0 align 2 {
  store ptr getelementptr inbounds nuw inrange(-16, 16) (i8, ptr @_ZTVN5ceres7ContextE, i64 16), ptr %0, align 8, !tbaa !3
  ret void
}

; Function Attrs: mustprogress uwtable
define noundef nonnull ptr @_ZN5ceres7Context6CreateEv() local_unnamed_addr #1 align 2 personality ptr @__gxx_personality_v0 {
  %1 = tail call noalias noundef nonnull dereferenceable(248) ptr @_Znwm(i64 noundef 248) #7
  invoke void @_ZN5ceres8internal11ContextImplC1Ev(ptr noundef nonnull align 8 dereferenceable(248) %1)
          to label %2 unwind label %3

2:                                                ; preds = %0
  ret ptr %1

3:                                                ; preds = %0
  %4 = landingpad { ptr, i32 }
          cleanup
  tail call void @_ZdlPvm(ptr noundef nonnull %1, i64 noundef 248) #8
  resume { ptr, i32 } %4
}

; Function Attrs: nobuiltin allocsize(0)
declare noundef nonnull ptr @_Znwm(i64 noundef) local_unnamed_addr #2

declare hidden void @_ZN5ceres8internal11ContextImplC1Ev(ptr noundef nonnull align 8 dereferenceable(248)) unnamed_addr #3

declare i32 @__gxx_personality_v0(...)

; Function Attrs: nobuiltin nounwind
declare void @_ZdlPvm(ptr noundef, i64 noundef) local_unnamed_addr #4

; Function Attrs: mustprogress nofree norecurse nosync nounwind willreturn memory(none) uwtable
define void @_ZN5ceres7ContextD2Ev(ptr nonnull readnone align 8 captures(none) %0) unnamed_addr #5 align 2 {
  ret void
}

; Function Attrs: mustprogress nounwind uwtable
define void @_ZN5ceres7ContextD0Ev(ptr noundef nonnull align 8 dereferenceable(8) %0) unnamed_addr #6 align 2 {
  tail call void @_ZN5ceres7ContextD1Ev(ptr noundef nonnull align 8 dereferenceable(8) %0) #9
  tail call void @_ZdlPvm(ptr noundef nonnull %0, i64 noundef 8) #8
  ret void
}


!llvm.module.flags = !{!0, !1, !2}

!0 = !{i32 1, !"wchar_size", i32 4}
!1 = !{i32 8, !"PIC Level", i32 2}
!2 = !{i32 7, !"uwtable", i32 2}
!3 = !{!4, !4, i64 0}
!4 = !{!"vtable pointer", !5, i64 0}
!5 = !{!"Simple C++ TBAA"}
